; Function Attrs: nounwind sspstrong uwtable
define internal i64 @io_buffer_set_value(i64 noundef %0, i64 noundef %1, i64 noundef %2, i64 noundef %3) #0 {
  %5 = alloca ptr, align 8
  %6 = alloca i64, align 8
  %7 = alloca i64, align 8
  call void @llvm.lifetime.start.p0(i64 8, ptr nonnull %5) #25
  call void @llvm.lifetime.start.p0(i64 8, ptr nonnull %6) #25
  call void @llvm.lifetime.start.p0(i64 8, ptr nonnull %7) #25
  %8 = tail call i32 @rb_int_negative_p(i64 noundef %2) #25
  %.not.i = icmp eq i32 %8, 0
  br i1 %.not.i, label %11, label %9

9:                                                ; preds = %4
  %10 = load i64, ptr @rb_eArgError, align 8, !tbaa !22
  tail call void (i64, ptr, ...) @rb_raise(i64 noundef %10, ptr noundef nonnull @.str.131) #26
  unreachable

11:                                               ; preds = %4
  %12 = and i64 %2, 1
  %.not.i.i = icmp eq i64 %12, 0
  br i1 %.not.i.i, label %15, label %13

13:                                               ; preds = %11
  %14 = ashr i64 %2, 1
  br label %io_buffer_extract_offset.exit

15:                                               ; preds = %11
  %16 = tail call i64 @rb_num2ull(i64 noundef %2) #25
  br label %io_buffer_extract_offset.exit

io_buffer_extract_offset.exit:                    ; preds = %13, %15
  %.0.i.i = phi i64 [ %14, %13 ], [ %16, %15 ]
  store i64 %.0.i.i, ptr %7, align 8, !tbaa !22
  call void @rb_io_buffer_get_bytes_for_writing(i64 noundef %0, ptr noundef nonnull %5, ptr noundef nonnull %6)
  %17 = load ptr, ptr %5, align 8, !tbaa !35
  %18 = load i64, ptr %6, align 8, !tbaa !22
  %19 = tail call i64 @rb_sym2id(i64 noundef %1) #25
  call fastcc void @rb_io_buffer_set_value(ptr noundef %17, i64 noundef %18, i64 noundef %19, ptr noundef %7, i64 noundef %3)
  %20 = load i64, ptr %7, align 8, !tbaa !22
  %21 = icmp ult i64 %20, 4611686018427387904
  br i1 %21, label %22, label %25

22:                                               ; preds = %io_buffer_extract_offset.exit
  %23 = shl nuw nsw i64 %20, 1
  %24 = or disjoint i64 %23, 1
  br label %rb_ull2num_inline.exit

25:                                               ; preds = %io_buffer_extract_offset.exit
  %26 = tail call i64 @rb_ull2inum(i64 noundef %20) #25
  br label %rb_ull2num_inline.exit

rb_ull2num_inline.exit:                           ; preds = %22, %25
  %.0.i = phi i64 [ %24, %22 ], [ %26, %25 ]
  call void @llvm.lifetime.end.p0(i64 8, ptr nonnull %7) #25
  call void @llvm.lifetime.end.p0(i64 8, ptr nonnull %6) #25
  call void @llvm.lifetime.end.p0(i64 8, ptr nonnull %5) #25
  ret i64 %.0.i
}